target datalayout = "e-m:e-p270:32:32-p271:32:32-p272:64:64-i64:64-i128:128-f80:128-n8:16:32:64-S128"
target triple = "x86_64-pc-linux-gnu"

%struct.RelFileLocator = type { i32, i32, i32 }
%struct.gistxlogPageReuse = type { %struct.RelFileLocator, i32, %struct.FullTransactionId, i8 }
%struct.FullTransactionId = type { i64 }
%struct.RelationData = type { %struct.RelFileLocator, ptr, i32, i32, i8, i8, i8, i8, i8, i32, i32, i32, i32, ptr, ptr, i32, %struct.LockInfoData, ptr, ptr, ptr, ptr, ptr, i8, ptr, ptr, ptr, ptr, ptr, ptr, i32, ptr, i8, ptr, ptr, i32, i8, i32, ptr, i8, ptr, ptr, ptr, ptr, ptr, ptr, ptr, i32, ptr, ptr, ptr, ptr, ptr, ptr, ptr, ptr, ptr, ptr, ptr, ptr, ptr, ptr, ptr, ptr, ptr, ptr, ptr, i32, i8, ptr }
%struct.LockInfoData = type { %struct.LockRelId }
%struct.LockRelId = type { i32, i32 }
%struct.FormData_pg_class = type { i32, %struct.nameData, i32, i32, i32, i32, i32, i32, i32, i32, float, i32, i32, i8, i8, i8, i8, i16, i16, i8, i8, i8, i8, i8, i8, i8, i8, i32, i32, i32 }
%struct.nameData = type { [64 x i8] }
%struct.StdRdOptions = type { i32, i32, i32, %struct.AutoVacOpts, i8, i32, i32, i8, double }
%struct.AutoVacOpts = type { i8, i32, i32, i32, i32, i32, i32, i32, i32, i32, i32, i32, i32, double, double, double, double }

@wal_level = external global i32, align 4

; Function Attrs: nounwind uwtable
define dso_local void @gistXLogPageReuse(ptr noundef %0, ptr noundef %1, i32 noundef %2, i64 %3) #0 {
  %5 = alloca %struct.FullTransactionId, align 8
  %6 = alloca ptr, align 8
  %7 = alloca ptr, align 8
  %8 = alloca i32, align 4
  %9 = alloca %struct.gistxlogPageReuse, align 8
  %10 = getelementptr inbounds nuw %struct.FullTransactionId, ptr %5, i32 0, i32 0
  store i64 %3, ptr %10, align 8
  store ptr %0, ptr %6, align 8
  store ptr %1, ptr %7, align 8
  store i32 %2, ptr %8, align 4
  call void @llvm.lifetime.start.p0(i64 32, ptr %9) #6
  %11 = load i32, ptr @wal_level, align 4
  %12 = icmp sge i32 %11, 2
  br i1 %12, label %13, label %72

13:                                               ; preds = %4
  %14 = load ptr, ptr %7, align 8
  %15 = getelementptr inbounds nuw %struct.RelationData, ptr %14, i32 0, i32 13
  %16 = load ptr, ptr %15, align 8
  %17 = getelementptr inbounds nuw %struct.FormData_pg_class, ptr %16, i32 0, i32 15
  %18 = load i8, ptr %17, align 2
  %19 = sext i8 %18 to i32
  %20 = icmp eq i32 %19, 112
  br i1 %20, label %21, label %72

21:                                               ; preds = %13
  %22 = load i32, ptr @wal_level, align 4
  %23 = icmp sge i32 %22, 1
  br i1 %23, label %34, label %24

24:                                               ; preds = %21
  %25 = load ptr, ptr %7, align 8
  %26 = getelementptr inbounds nuw %struct.RelationData, ptr %25, i32 0, i32 9
  %27 = load i32, ptr %26, align 8
  %28 = icmp eq i32 %27, 0
  br i1 %28, label %29, label %72

29:                                               ; preds = %24
  %30 = load ptr, ptr %7, align 8
  %31 = getelementptr inbounds nuw %struct.RelationData, ptr %30, i32 0, i32 11
  %32 = load i32, ptr %31, align 8
  %33 = icmp eq i32 %32, 0
  br i1 %33, label %34, label %72

34:                                               ; preds = %29, %21
  %35 = load ptr, ptr %7, align 8
  %36 = call zeroext i1 @IsCatalogRelation(ptr noundef %35)
  br i1 %36, label %70, label %37

37:                                               ; preds = %34
  %38 = load ptr, ptr %7, align 8
  %39 = getelementptr inbounds nuw %struct.RelationData, ptr %38, i32 0, i32 45
  %40 = load ptr, ptr %39, align 8
  %41 = icmp ne ptr %40, null
  br i1 %41, label %42, label %66

42:                                               ; preds = %37
  %43 = load ptr, ptr %7, align 8
  %44 = getelementptr inbounds nuw %struct.RelationData, ptr %43, i32 0, i32 13
  %45 = load ptr, ptr %44, align 8
  %46 = getelementptr inbounds nuw %struct.FormData_pg_class, ptr %45, i32 0, i32 16
  %47 = load i8, ptr %46, align 1
  %48 = sext i8 %47 to i32
  %49 = icmp eq i32 %48, 114
  br i1 %49, label %58, label %50

50:                                               ; preds = %42
  %51 = load ptr, ptr %7, align 8
  %52 = getelementptr inbounds nuw %struct.RelationData, ptr %51, i32 0, i32 13
  %53 = load ptr, ptr %52, align 8
  %54 = getelementptr inbounds nuw %struct.FormData_pg_class, ptr %53, i32 0, i32 16
  %55 = load i8, ptr %54, align 1
  %56 = sext i8 %55 to i32
  %57 = icmp eq i32 %56, 109
  br i1 %57, label %58, label %66

58:                                               ; preds = %50, %42
  %59 = load ptr, ptr %7, align 8
  %60 = getelementptr inbounds nuw %struct.RelationData, ptr %59, i32 0, i32 45
  %61 = load ptr, ptr %60, align 8
  %62 = getelementptr inbounds nuw %struct.StdRdOptions, ptr %61, i32 0, i32 4
  %63 = load i8, ptr %62, align 8, !range !6, !noundef !7
  %64 = trunc i8 %63 to i1
  %65 = zext i1 %64 to i32
  br label %67

66:                                               ; preds = %50, %37
  br label %67

67:                                               ; preds = %66, %58
  %68 = phi i32 [ %65, %58 ], [ 0, %66 ]
  %69 = icmp ne i32 %68, 0
  br label %70

70:                                               ; preds = %67, %34
  %71 = phi i1 [ true, %34 ], [ %69, %67 ]
  br label %72

72:                                               ; preds = %70, %29, %24, %13, %4
  %73 = phi i1 [ false, %29 ], [ false, %24 ], [ false, %13 ], [ false, %4 ], [ %71, %70 ]
  %74 = getelementptr inbounds nuw %struct.gistxlogPageReuse, ptr %9, i32 0, i32 3
  %75 = zext i1 %73 to i8
  store i8 %75, ptr %74, align 8
  %76 = getelementptr inbounds nuw %struct.gistxlogPageReuse, ptr %9, i32 0, i32 0
  %77 = load ptr, ptr %6, align 8
  %78 = getelementptr inbounds nuw %struct.RelationData, ptr %77, i32 0, i32 0
  call void @llvm.memcpy.p0.p0.i64(ptr align 8 %76, ptr align 8 %78, i64 12, i1 false)
  %79 = load i32, ptr %8, align 4
  %80 = getelementptr inbounds nuw %struct.gistxlogPageReuse, ptr %9, i32 0, i32 1
  store i32 %79, ptr %80, align 4
  %81 = getelementptr inbounds nuw %struct.gistxlogPageReuse, ptr %9, i32 0, i32 2
  call void @llvm.memcpy.p0.p0.i64(ptr align 8 %81, ptr align 8 %5, i64 8, i1 false)
  call void @XLogBeginInsert()
  call void @XLogRegisterData(ptr noundef %9, i32 noundef 25)
  %82 = call i64 @XLogInsert(i8 noundef zeroext 14, i8 noundef zeroext 32)
  call void @llvm.lifetime.end.p0(i64 32, ptr %9) #6
  ret void
}