; Function Attrs: nounwind uwtable
define dso_local void @gistXLogPageReuse(ptr noundef readonly captures(none) %0, ptr noundef %1, i32 noundef %2, i64 %3) local_unnamed_addr #0 {
  %5 = alloca %struct.gistxlogPageReuse, align 8
  call void @llvm.lifetime.start.p0(i64 32, ptr nonnull %5) #6
  %6 = load i32, ptr @wal_level, align 4
  %7 = icmp sgt i32 %6, 1
  br i1 %7, label %8, label %26

8:                                                ; preds = %4
  %9 = getelementptr inbounds nuw i8, ptr %1, i64 56
  %10 = load ptr, ptr %9, align 8
  %11 = getelementptr inbounds nuw i8, ptr %10, i64 114
  %12 = load i8, ptr %11, align 2
  %13 = icmp eq i8 %12, 112
  br i1 %13, label %14, label %26

14:                                               ; preds = %8
  %15 = tail call zeroext i1 @IsCatalogRelation(ptr noundef nonnull %1) #6
  br i1 %15, label %26, label %16

16:                                               ; preds = %14
  %17 = getelementptr inbounds nuw i8, ptr %1, i64 304
  %18 = load ptr, ptr %17, align 8
  %.not = icmp eq ptr %18, null
  br i1 %.not, label %26, label %19

19:                                               ; preds = %16
  %20 = load ptr, ptr %9, align 8
  %21 = getelementptr inbounds nuw i8, ptr %20, i64 115
  %22 = load i8, ptr %21, align 1
  switch i8 %22, label %26 [
    i8 114, label %23
    i8 109, label %23
  ]

23:                                               ; preds = %19, %19
  %24 = getelementptr inbounds nuw i8, ptr %18, i64 104
  %25 = load i8, ptr %24, align 8, !range !6, !noundef !7
  br label %26

26:                                               ; preds = %23, %16, %19, %14, %8, %4
  %27 = phi i8 [ 0, %8 ], [ 0, %4 ], [ 1, %14 ], [ %25, %23 ], [ 0, %16 ], [ 0, %19 ]
  %28 = getelementptr inbounds nuw i8, ptr %5, i64 24
  store i8 %27, ptr %28, align 8
  call void @llvm.memcpy.p0.p0.i64(ptr noundef nonnull align 8 dereferenceable(12) %5, ptr noundef nonnull align 8 dereferenceable(12) %0, i64 12, i1 false)
  %29 = getelementptr inbounds nuw i8, ptr %5, i64 12
  store i32 %2, ptr %29, align 4
  %30 = getelementptr inbounds nuw i8, ptr %5, i64 16
  store i64 %3, ptr %30, align 8
  tail call void @XLogBeginInsert() #6
  call void @XLogRegisterData(ptr noundef nonnull %5, i32 noundef 25) #6
  %31 = call i64 @XLogInsert(i8 noundef zeroext 14, i8 noundef zeroext 32) #6
  call void @llvm.lifetime.end.p0(i64 32, ptr nonnull %5) #6
  ret void
}